; Function Attrs: nounwind uwtable
define hidden i64 @ssl_record_prefix_len(ptr noundef readonly captures(none) %0) local_unnamed_addr #0 {
  %2 = getelementptr inbounds nuw i8, ptr %0, i64 8
  %3 = load ptr, ptr %2, align 8, !tbaa !11
  %4 = load i8, ptr %3, align 8, !tbaa !38
  %.not = icmp eq i8 %4, 0
  %5 = getelementptr inbounds nuw i8, ptr %0, i64 80
  %6 = load ptr, ptr %5, align 8, !tbaa !40
  %7 = getelementptr inbounds nuw i8, ptr %6, i64 264
  %8 = load ptr, ptr %7, align 8, !tbaa !41
  %9 = tail call i64 @SSL_AEAD_CTX_explicit_nonce_len(ptr noundef %8) #4
  %. = select i1 %.not, i64 5, i64 13
  %10 = add i64 %9, %.
  ret i64 %10
}